target datalayout = "e-m:e-p270:32:32-p271:32:32-p272:64:64-i64:64-i128:128-f80:128-n8:16:32:64-S128"
target triple = "x86_64-pc-linux-gnu"

%struct.AVMetadataConv = type { ptr, ptr }
%struct.EbmlList = type { i32, i32, ptr }
%struct.MatroskaTag = type { ptr, ptr, ptr, i64, %struct.EbmlList }

@.str.75 = private unnamed_addr constant [4 x i8] c"und\00", align 1
@.str.175 = private unnamed_addr constant [39 x i8] c"Skipping invalid tag with no TagName.\0A\00", align 1
@.str.176 = private unnamed_addr constant [6 x i8] c"%s/%s\00", align 1
@.str.177 = private unnamed_addr constant [2 x i8] c"-\00", align 1
@ff_mkv_metadata_conv = external constant [0 x %struct.AVMetadataConv], align 8

; Function Attrs: nounwind uwtable
define internal void @matroska_convert_tag(ptr noundef %0, ptr noundef %1, ptr noundef %2, ptr noundef %3) #0 {
  %5 = alloca ptr, align 8
  %6 = alloca ptr, align 8
  %7 = alloca ptr, align 8
  %8 = alloca ptr, align 8
  %9 = alloca ptr, align 8
  %10 = alloca [1024 x i8], align 16
  %11 = alloca i32, align 4
  %12 = alloca ptr, align 8
  %13 = alloca i32, align 4
  store ptr %0, ptr %5, align 8, !tbaa !4
  store ptr %1, ptr %6, align 8, !tbaa !77
  store ptr %2, ptr %7, align 8, !tbaa !382
  store ptr %3, ptr %8, align 8, !tbaa !44
  call void @llvm.lifetime.start.p0(i64 8, ptr %9) #14
  %14 = load ptr, ptr %6, align 8, !tbaa !77
  %15 = getelementptr inbounds nuw %struct.EbmlList, ptr %14, i32 0, i32 2
  %16 = load ptr, ptr %15, align 8, !tbaa !102
  store ptr %16, ptr %9, align 8, !tbaa !565
  call void @llvm.lifetime.start.p0(i64 1024, ptr %10) #14
  call void @llvm.lifetime.start.p0(i64 4, ptr %11) #14
  store i32 0, ptr %11, align 4, !tbaa !9
  br label %17

17:                                               ; preds = %160, %4
  %18 = load i32, ptr %11, align 4, !tbaa !9
  %19 = load ptr, ptr %6, align 8, !tbaa !77
  %20 = getelementptr inbounds nuw %struct.EbmlList, ptr %19, i32 0, i32 0
  %21 = load i32, ptr %20, align 8, !tbaa !105
  %22 = icmp slt i32 %18, %21
  br i1 %22, label %23, label %163

23:                                               ; preds = %17
  call void @llvm.lifetime.start.p0(i64 8, ptr %12) #14
  %24 = load ptr, ptr %9, align 8, !tbaa !565
  %25 = load i32, ptr %11, align 4, !tbaa !9
  %26 = sext i32 %25 to i64
  %27 = getelementptr inbounds %struct.MatroskaTag, ptr %24, i64 %26
  %28 = getelementptr inbounds nuw %struct.MatroskaTag, ptr %27, i32 0, i32 2
  %29 = load ptr, ptr %28, align 8, !tbaa !567
  %30 = icmp ne ptr %29, null
  br i1 %30, label %31, label %47

31:                                               ; preds = %23
  %32 = load ptr, ptr %9, align 8, !tbaa !565
  %33 = load i32, ptr %11, align 4, !tbaa !9
  %34 = sext i32 %33 to i64
  %35 = getelementptr inbounds %struct.MatroskaTag, ptr %32, i64 %34
  %36 = getelementptr inbounds nuw %struct.MatroskaTag, ptr %35, i32 0, i32 2
  %37 = load ptr, ptr %36, align 8, !tbaa !567
  %38 = call i32 @strcmp(ptr noundef %37, ptr noundef @.str.75) #15
  %39 = icmp ne i32 %38, 0
  br i1 %39, label %40, label %47

40:                                               ; preds = %31
  %41 = load ptr, ptr %9, align 8, !tbaa !565
  %42 = load i32, ptr %11, align 4, !tbaa !9
  %43 = sext i32 %42 to i64
  %44 = getelementptr inbounds %struct.MatroskaTag, ptr %41, i64 %43
  %45 = getelementptr inbounds nuw %struct.MatroskaTag, ptr %44, i32 0, i32 2
  %46 = load ptr, ptr %45, align 8, !tbaa !567
  br label %48

47:                                               ; preds = %31, %23
  br label %48

48:                                               ; preds = %47, %40
  %49 = phi ptr [ %46, %40 ], [ null, %47 ]
  store ptr %49, ptr %12, align 8, !tbaa !44
  %50 = load ptr, ptr %9, align 8, !tbaa !565
  %51 = load i32, ptr %11, align 4, !tbaa !9
  %52 = sext i32 %51 to i64
  %53 = getelementptr inbounds %struct.MatroskaTag, ptr %50, i64 %52
  %54 = getelementptr inbounds nuw %struct.MatroskaTag, ptr %53, i32 0, i32 0
  %55 = load ptr, ptr %54, align 8, !tbaa !569
  %56 = icmp ne ptr %55, null
  br i1 %56, label %59, label %57

57:                                               ; preds = %48
  %58 = load ptr, ptr %5, align 8, !tbaa !4
  call void (ptr, i32, ptr, ...) @av_log(ptr noundef %58, i32 noundef 24, ptr noundef @.str.175)
  store i32 4, ptr %13, align 4
  br label %157

59:                                               ; preds = %48
  %60 = load ptr, ptr %8, align 8, !tbaa !44
  %61 = icmp ne ptr %60, null
  br i1 %61, label %62, label %72

62:                                               ; preds = %59
  %63 = getelementptr inbounds [1024 x i8], ptr %10, i64 0, i64 0
  %64 = load ptr, ptr %8, align 8, !tbaa !44
  %65 = load ptr, ptr %9, align 8, !tbaa !565
  %66 = load i32, ptr %11, align 4, !tbaa !9
  %67 = sext i32 %66 to i64
  %68 = getelementptr inbounds %struct.MatroskaTag, ptr %65, i64 %67
  %69 = getelementptr inbounds nuw %struct.MatroskaTag, ptr %68, i32 0, i32 0
  %70 = load ptr, ptr %69, align 8, !tbaa !569
  %71 = call i32 (ptr, i64, ptr, ...) @snprintf(ptr noundef %63, i64 noundef 1024, ptr noundef @.str.176, ptr noundef %64, ptr noundef %70) #14
  br label %81

72:                                               ; preds = %59
  %73 = getelementptr inbounds [1024 x i8], ptr %10, i64 0, i64 0
  %74 = load ptr, ptr %9, align 8, !tbaa !565
  %75 = load i32, ptr %11, align 4, !tbaa !9
  %76 = sext i32 %75 to i64
  %77 = getelementptr inbounds %struct.MatroskaTag, ptr %74, i64 %76
  %78 = getelementptr inbounds nuw %struct.MatroskaTag, ptr %77, i32 0, i32 0
  %79 = load ptr, ptr %78, align 8, !tbaa !569
  %80 = call i64 @av_strlcpy(ptr noundef %73, ptr noundef %79, i64 noundef 1024)
  br label %81

81:                                               ; preds = %72, %62
  %82 = load ptr, ptr %9, align 8, !tbaa !565
  %83 = load i32, ptr %11, align 4, !tbaa !9
  %84 = sext i32 %83 to i64
  %85 = getelementptr inbounds %struct.MatroskaTag, ptr %82, i64 %84
  %86 = getelementptr inbounds nuw %struct.MatroskaTag, ptr %85, i32 0, i32 3
  %87 = load i64, ptr %86, align 8, !tbaa !570
  %88 = icmp ne i64 %87, 0
  br i1 %88, label %92, label %89

89:                                               ; preds = %81
  %90 = load ptr, ptr %12, align 8, !tbaa !44
  %91 = icmp ne ptr %90, null
  br i1 %91, label %120, label %92

92:                                               ; preds = %89, %81
  %93 = load ptr, ptr %7, align 8, !tbaa !382
  %94 = getelementptr inbounds [1024 x i8], ptr %10, i64 0, i64 0
  %95 = load ptr, ptr %9, align 8, !tbaa !565
  %96 = load i32, ptr %11, align 4, !tbaa !9
  %97 = sext i32 %96 to i64
  %98 = getelementptr inbounds %struct.MatroskaTag, ptr %95, i64 %97
  %99 = getelementptr inbounds nuw %struct.MatroskaTag, ptr %98, i32 0, i32 1
  %100 = load ptr, ptr %99, align 8, !tbaa !571
  %101 = call i32 @av_dict_set(ptr noundef %93, ptr noundef %94, ptr noundef %100, i32 noundef 0)
  %102 = load ptr, ptr %9, align 8, !tbaa !565
  %103 = load i32, ptr %11, align 4, !tbaa !9
  %104 = sext i32 %103 to i64
  %105 = getelementptr inbounds %struct.MatroskaTag, ptr %102, i64 %104
  %106 = getelementptr inbounds nuw %struct.MatroskaTag, ptr %105, i32 0, i32 4
  %107 = getelementptr inbounds nuw %struct.EbmlList, ptr %106, i32 0, i32 0
  %108 = load i32, ptr %107, align 8, !tbaa !572
  %109 = icmp ne i32 %108, 0
  br i1 %109, label %110, label %119

110:                                              ; preds = %92
  %111 = load ptr, ptr %5, align 8, !tbaa !4
  %112 = load ptr, ptr %9, align 8, !tbaa !565
  %113 = load i32, ptr %11, align 4, !tbaa !9
  %114 = sext i32 %113 to i64
  %115 = getelementptr inbounds %struct.MatroskaTag, ptr %112, i64 %114
  %116 = getelementptr inbounds nuw %struct.MatroskaTag, ptr %115, i32 0, i32 4
  %117 = load ptr, ptr %7, align 8, !tbaa !382
  %118 = getelementptr inbounds [1024 x i8], ptr %10, i64 0, i64 0
  call void @matroska_convert_tag(ptr noundef %111, ptr noundef %116, ptr noundef %117, ptr noundef %118)
  br label %119

119:                                              ; preds = %110, %92
  br label %120

120:                                              ; preds = %119, %89
  %121 = load ptr, ptr %12, align 8, !tbaa !44
  %122 = icmp ne ptr %121, null
  br i1 %122, label %123, label %156

123:                                              ; preds = %120
  %124 = getelementptr inbounds [1024 x i8], ptr %10, i64 0, i64 0
  %125 = call i64 @av_strlcat(ptr noundef %124, ptr noundef @.str.177, i64 noundef 1024)
  %126 = getelementptr inbounds [1024 x i8], ptr %10, i64 0, i64 0
  %127 = load ptr, ptr %12, align 8, !tbaa !44
  %128 = call i64 @av_strlcat(ptr noundef %126, ptr noundef %127, i64 noundef 1024)
  %129 = load ptr, ptr %7, align 8, !tbaa !382
  %130 = getelementptr inbounds [1024 x i8], ptr %10, i64 0, i64 0
  %131 = load ptr, ptr %9, align 8, !tbaa !565
  %132 = load i32, ptr %11, align 4, !tbaa !9
  %133 = sext i32 %132 to i64
  %134 = getelementptr inbounds %struct.MatroskaTag, ptr %131, i64 %133
  %135 = getelementptr inbounds nuw %struct.MatroskaTag, ptr %134, i32 0, i32 1
  %136 = load ptr, ptr %135, align 8, !tbaa !571
  %137 = call i32 @av_dict_set(ptr noundef %129, ptr noundef %130, ptr noundef %136, i32 noundef 0)
  %138 = load ptr, ptr %9, align 8, !tbaa !565
  %139 = load i32, ptr %11, align 4, !tbaa !9
  %140 = sext i32 %139 to i64
  %141 = getelementptr inbounds %struct.MatroskaTag, ptr %138, i64 %140
  %142 = getelementptr inbounds nuw %struct.MatroskaTag, ptr %141, i32 0, i32 4
  %143 = getelementptr inbounds nuw %struct.EbmlList, ptr %142, i32 0, i32 0
  %144 = load i32, ptr %143, align 8, !tbaa !572
  %145 = icmp ne i32 %144, 0
  br i1 %145, label %146, label %155

146:                                              ; preds = %123
  %147 = load ptr, ptr %5, align 8, !tbaa !4
  %148 = load ptr, ptr %9, align 8, !tbaa !565
  %149 = load i32, ptr %11, align 4, !tbaa !9
  %150 = sext i32 %149 to i64
  %151 = getelementptr inbounds %struct.MatroskaTag, ptr %148, i64 %150
  %152 = getelementptr inbounds nuw %struct.MatroskaTag, ptr %151, i32 0, i32 4
  %153 = load ptr, ptr %7, align 8, !tbaa !382
  %154 = getelementptr inbounds [1024 x i8], ptr %10, i64 0, i64 0
  call void @matroska_convert_tag(ptr noundef %147, ptr noundef %152, ptr noundef %153, ptr noundef %154)
  br label %155

155:                                              ; preds = %146, %123
  br label %156

156:                                              ; preds = %155, %120
  store i32 0, ptr %13, align 4
  br label %157

157:                                              ; preds = %156, %57
  call void @llvm.lifetime.end.p0(i64 8, ptr %12) #14
  %158 = load i32, ptr %13, align 4
  switch i32 %158, label %165 [
    i32 0, label %159
    i32 4, label %160
  ]

159:                                              ; preds = %157
  br label %160

160:                                              ; preds = %159, %157
  %161 = load i32, ptr %11, align 4, !tbaa !9
  %162 = add nsw i32 %161, 1
  store i32 %162, ptr %11, align 4, !tbaa !9
  br label %17, !llvm.loop !573

163:                                              ; preds = %17
  %164 = load ptr, ptr %7, align 8, !tbaa !382
  call void @ff_metadata_conv(ptr noundef %164, ptr noundef null, ptr noundef @ff_mkv_metadata_conv)
  call void @llvm.lifetime.end.p0(i64 4, ptr %11) #14
  call void @llvm.lifetime.end.p0(i64 1024, ptr %10) #14
  call void @llvm.lifetime.end.p0(i64 8, ptr %9) #14
  ret void

165:                                              ; preds = %157
  unreachable
}