; Function Attrs: nounwind uwtable
define internal fastcc void @matroska_convert_tag(ptr noundef %0, ptr noundef readonly captures(none) %1, ptr noundef %2, ptr noundef %3) unnamed_addr #0 {
  %5 = alloca [1024 x i8], align 16
  %6 = getelementptr inbounds nuw i8, ptr %1, i64 8
  %7 = load ptr, ptr %6, align 8, !tbaa !52
  call void @llvm.lifetime.start.p0(i64 1024, ptr nonnull %5) #15
  %8 = load i32, ptr %1, align 8, !tbaa !53
  %9 = icmp sgt i32 %8, 0
  br i1 %9, label %.lr.ph, label %._crit_edge

.lr.ph:                                           ; preds = %4
  %.not49 = icmp eq ptr %3, null
  br label %10

10:                                               ; preds = %.lr.ph, %46
  %indvars.iv = phi i64 [ 0, %.lr.ph ], [ %indvars.iv.next, %46 ]
  %11 = getelementptr inbounds nuw %struct.MatroskaTag, ptr %7, i64 %indvars.iv
  %12 = getelementptr inbounds nuw i8, ptr %11, i64 16
  %13 = load ptr, ptr %12, align 8, !tbaa !476
  %.not = icmp eq ptr %13, null
  br i1 %.not, label %16, label %14

14:                                               ; preds = %10
  %15 = call i32 @strcmp(ptr noundef nonnull dereferenceable(1) %13, ptr noundef nonnull dereferenceable(4) @.str.75) #16
  %.not47 = icmp eq i32 %15, 0
  %spec.select = select i1 %.not47, ptr null, ptr %13
  br label %16

16:                                               ; preds = %14, %10
  %17 = phi ptr [ null, %10 ], [ %spec.select, %14 ]
  %18 = load ptr, ptr %11, align 8, !tbaa !478
  %.not48 = icmp eq ptr %18, null
  br i1 %.not48, label %19, label %20

19:                                               ; preds = %16
  call void (ptr, i32, ptr, ...) @av_log(ptr noundef %0, i32 noundef 24, ptr noundef nonnull @.str.175) #15
  br label %46

20:                                               ; preds = %16
  br i1 %.not49, label %23, label %21

21:                                               ; preds = %20
  %22 = call i32 (ptr, i64, ptr, ...) @snprintf(ptr noundef nonnull dereferenceable(1) %5, i64 noundef 1024, ptr noundef nonnull @.str.176, ptr noundef nonnull %3, ptr noundef nonnull %18) #15
  br label %25

23:                                               ; preds = %20
  %24 = call i64 @av_strlcpy(ptr noundef nonnull %5, ptr noundef nonnull %18, i64 noundef 1024) #15
  br label %25

25:                                               ; preds = %23, %21
  %26 = getelementptr inbounds nuw i8, ptr %11, i64 24
  %27 = load i64, ptr %26, align 8, !tbaa !479
  %28 = icmp eq i64 %27, 0
  %29 = icmp ne ptr %17, null
  %or.cond = and i1 %29, %28
  br i1 %or.cond, label %.thread, label %30

30:                                               ; preds = %25
  %31 = getelementptr inbounds nuw i8, ptr %11, i64 8
  %32 = load ptr, ptr %31, align 8, !tbaa !480
  %33 = call i32 @av_dict_set(ptr noundef %2, ptr noundef nonnull %5, ptr noundef %32, i32 noundef 0) #15
  %34 = getelementptr inbounds nuw i8, ptr %11, i64 32
  %35 = load i32, ptr %34, align 8, !tbaa !481
  %.not50 = icmp eq i32 %35, 0
  br i1 %.not50, label %37, label %36

36:                                               ; preds = %30
  call fastcc void @matroska_convert_tag(ptr noundef %0, ptr noundef nonnull %34, ptr noundef %2, ptr noundef nonnull %5)
  br label %37

37:                                               ; preds = %30, %36
  br i1 %29, label %.thread, label %46

.thread:                                          ; preds = %25, %37
  %38 = call i64 @av_strlcat(ptr noundef nonnull %5, ptr noundef nonnull @.str.177, i64 noundef 1024) #15
  %39 = call i64 @av_strlcat(ptr noundef nonnull %5, ptr noundef nonnull %17, i64 noundef 1024) #15
  %40 = getelementptr inbounds nuw i8, ptr %11, i64 8
  %41 = load ptr, ptr %40, align 8, !tbaa !480
  %42 = call i32 @av_dict_set(ptr noundef %2, ptr noundef nonnull %5, ptr noundef %41, i32 noundef 0) #15
  %43 = getelementptr inbounds nuw i8, ptr %11, i64 32
  %44 = load i32, ptr %43, align 8, !tbaa !481
  %.not51 = icmp eq i32 %44, 0
  br i1 %.not51, label %46, label %45

45:                                               ; preds = %.thread
  call fastcc void @matroska_convert_tag(ptr noundef %0, ptr noundef nonnull %43, ptr noundef %2, ptr noundef nonnull %5)
  br label %46

46:                                               ; preds = %37, %45, %.thread, %19
  %indvars.iv.next = add nuw nsw i64 %indvars.iv, 1
  %47 = load i32, ptr %1, align 8, !tbaa !53
  %48 = sext i32 %47 to i64
  %49 = icmp slt i64 %indvars.iv.next, %48
  br i1 %49, label %10, label %._crit_edge, !llvm.loop !482

._crit_edge:                                      ; preds = %46, %4
  call void @ff_metadata_conv(ptr noundef %2, ptr noundef null, ptr noundef nonnull @ff_mkv_metadata_conv) #15
  call void @llvm.lifetime.end.p0(i64 1024, ptr nonnull %5) #15
  ret void
}